target datalayout = "e-m:e-p270:32:32-p271:32:32-p272:64:64-i64:64-i128:128-f80:128-n8:16:32:64-S128"
target triple = "x86_64-pc-linux-gnu"

%struct.AVFilterContext = type { ptr, ptr, ptr, ptr, ptr, i32, ptr, ptr, i32, ptr, ptr, i32, i32, ptr, ptr, ptr, ptr, i32, ptr, i32, i32 }
%struct.ATiltContext = type { ptr, double, double, double, double, i32, [30 x %struct.Coeffs], ptr, ptr }
%struct.Coeffs = type { double, double, double, double }
%struct.AVFilterLink = type { ptr, ptr, ptr, ptr, i32, i32, i32, i32, %struct.AVRational, i32, i32, i32, %struct.AVChannelLayout, %struct.AVRational, ptr, i32, %struct.AVFilterFormatsConfig, %struct.AVFilterFormatsConfig }
%struct.AVChannelLayout = type { i32, i32, %union.anon.1, ptr }
%union.anon.1 = type { i64 }
%struct.AVRational = type { i32, i32 }
%struct.AVFilterFormatsConfig = type { ptr, ptr, ptr, ptr, ptr }

; Function Attrs: nounwind uwtable
define internal double @mp(i32 noundef %0, double noundef %1, double noundef %2) #1 {
  %4 = alloca i32, align 4
  %5 = alloca double, align 8
  %6 = alloca double, align 8
  store i32 %0, ptr %4, align 4, !tbaa !25
  store double %1, ptr %5, align 8, !tbaa !76
  store double %2, ptr %6, align 8, !tbaa !76
  %7 = load double, ptr %5, align 8, !tbaa !76
  %8 = load double, ptr %6, align 8, !tbaa !76
  %9 = load i32, ptr %4, align 4, !tbaa !25
  %10 = sitofp i32 %9 to double
  %11 = call nsz double @llvm.pow.f64(double %8, double %10)
  %12 = fmul nsz double %7, %11
  ret double %12
}

; Function Attrs: nounwind uwtable
define internal double @prewarp(double noundef %0, double noundef %1, double noundef %2) #1 {
  %4 = alloca double, align 8
  %5 = alloca double, align 8
  %6 = alloca double, align 8
  store double %0, ptr %4, align 8, !tbaa !76
  store double %1, ptr %5, align 8, !tbaa !76
  store double %2, ptr %6, align 8, !tbaa !76
  %7 = load double, ptr %6, align 8, !tbaa !76
  %8 = load double, ptr %4, align 8, !tbaa !76
  %9 = load double, ptr %5, align 8, !tbaa !76
  %10 = fmul nsz double %8, %9
  %11 = fmul nsz double %10, 5.000000e-01
  %12 = call nsz double @llvm.tan.f64(double %11)
  %13 = fmul nsz double %7, %12
  %14 = load double, ptr %6, align 8, !tbaa !76
  %15 = load double, ptr %5, align 8, !tbaa !76
  %16 = fmul nsz double %14, %15
  %17 = fmul nsz double %16, 5.000000e-01
  %18 = call nsz double @llvm.tan.f64(double %17)
  %19 = fdiv nsz double %13, %18
  ret double %19
}

; Function Attrs: nounwind uwtable
define internal double @mz(i32 noundef %0, double noundef %1, double noundef %2, double noundef %3) #1 {
  %5 = alloca i32, align 4
  %6 = alloca double, align 8
  %7 = alloca double, align 8
  %8 = alloca double, align 8
  store i32 %0, ptr %5, align 4, !tbaa !25
  store double %1, ptr %6, align 8, !tbaa !76
  store double %2, ptr %7, align 8, !tbaa !76
  store double %3, ptr %8, align 8, !tbaa !76
  %9 = load double, ptr %6, align 8, !tbaa !76
  %10 = load double, ptr %7, align 8, !tbaa !76
  %11 = load double, ptr %8, align 8, !tbaa !76
  %12 = fneg nsz double %11
  %13 = load i32, ptr %5, align 4, !tbaa !25
  %14 = sitofp i32 %13 to double
  %15 = fadd nsz double %12, %14
  %16 = call nsz double @llvm.pow.f64(double %10, double %15)
  %17 = fmul nsz double %9, %16
  ret double %17
}

; Function Attrs: nounwind uwtable
define internal void @set_tf1s(ptr noundef %0, double noundef %1, double noundef %2, double noundef %3, double noundef %4, double noundef %5, double noundef %6) #1 {
  %8 = alloca ptr, align 8
  %9 = alloca double, align 8
  %10 = alloca double, align 8
  %11 = alloca double, align 8
  %12 = alloca double, align 8
  %13 = alloca double, align 8
  %14 = alloca double, align 8
  %15 = alloca double, align 8
  %16 = alloca double, align 8
  store ptr %0, ptr %8, align 8, !tbaa !65
  store double %1, ptr %9, align 8, !tbaa !76
  store double %2, ptr %10, align 8, !tbaa !76
  store double %3, ptr %11, align 8, !tbaa !76
  store double %4, ptr %12, align 8, !tbaa !76
  store double %5, ptr %13, align 8, !tbaa !76
  store double %6, ptr %14, align 8, !tbaa !76
  call void @llvm.lifetime.start.p0(i64 8, ptr %15) #6
  %17 = load double, ptr %12, align 8, !tbaa !76
  %18 = fmul nsz double %17, 5.000000e-01
  %19 = load double, ptr %13, align 8, !tbaa !76
  %20 = fdiv nsz double %18, %19
  %21 = call nsz double @llvm.tan.f64(double %20)
  %22 = fdiv nsz double 1.000000e+00, %21
  store double %22, ptr %15, align 8, !tbaa !76
  call void @llvm.lifetime.start.p0(i64 8, ptr %16) #6
  %23 = load double, ptr %11, align 8, !tbaa !76
  %24 = load double, ptr %15, align 8, !tbaa !76
  %25 = fadd nsz double %23, %24
  store double %25, ptr %16, align 8, !tbaa !76
  %26 = load double, ptr %10, align 8, !tbaa !76
  %27 = load double, ptr %9, align 8, !tbaa !76
  %28 = load double, ptr %15, align 8, !tbaa !76
  %29 = fneg nsz double %27
  %30 = call nsz double @llvm.fmuladd.f64(double %29, double %28, double %26)
  %31 = load double, ptr %16, align 8, !tbaa !76
  %32 = fdiv nsz double %30, %31
  %33 = load ptr, ptr %8, align 8, !tbaa !65
  %34 = getelementptr inbounds nuw %struct.Coeffs, ptr %33, i32 0, i32 3
  store double %32, ptr %34, align 8, !tbaa !71
  %35 = load double, ptr %10, align 8, !tbaa !76
  %36 = load double, ptr %9, align 8, !tbaa !76
  %37 = load double, ptr %15, align 8, !tbaa !76
  %38 = call nsz double @llvm.fmuladd.f64(double %36, double %37, double %35)
  %39 = load double, ptr %16, align 8, !tbaa !76
  %40 = fdiv nsz double %38, %39
  %41 = load ptr, ptr %8, align 8, !tbaa !65
  %42 = getelementptr inbounds nuw %struct.Coeffs, ptr %41, i32 0, i32 2
  store double %40, ptr %42, align 8, !tbaa !70
  %43 = load double, ptr %11, align 8, !tbaa !76
  %44 = load double, ptr %15, align 8, !tbaa !76
  %45 = fsub nsz double %43, %44
  %46 = load double, ptr %16, align 8, !tbaa !76
  %47 = fdiv nsz double %45, %46
  %48 = load ptr, ptr %8, align 8, !tbaa !65
  %49 = getelementptr inbounds nuw %struct.Coeffs, ptr %48, i32 0, i32 1
  store double %47, ptr %49, align 8, !tbaa !69
  %50 = load double, ptr %11, align 8, !tbaa !76
  %51 = load double, ptr %10, align 8, !tbaa !76
  %52 = fdiv nsz double %50, %51
  %53 = load ptr, ptr %8, align 8, !tbaa !65
  %54 = getelementptr inbounds nuw %struct.Coeffs, ptr %53, i32 0, i32 0
  store double %52, ptr %54, align 8, !tbaa !67
  call void @llvm.lifetime.end.p0(i64 8, ptr %16) #6
  call void @llvm.lifetime.end.p0(i64 8, ptr %15) #6
  ret void
}

; Function Attrs: nounwind uwtable
define internal double @mph(i32 noundef %0, double noundef %1, double noundef %2, double noundef %3) #1 {
  %5 = alloca i32, align 4
  %6 = alloca double, align 8
  %7 = alloca double, align 8
  %8 = alloca double, align 8
  store i32 %0, ptr %5, align 4, !tbaa !25
  store double %1, ptr %6, align 8, !tbaa !76
  store double %2, ptr %7, align 8, !tbaa !76
  store double %3, ptr %8, align 8, !tbaa !76
  %9 = load i32, ptr %5, align 4, !tbaa !25
  %10 = load double, ptr %7, align 8, !tbaa !76
  %11 = load double, ptr %8, align 8, !tbaa !76
  %12 = call nsz double @mp(i32 noundef %9, double noundef %10, double noundef %11)
  %13 = load double, ptr %6, align 8, !tbaa !76
  %14 = load double, ptr %7, align 8, !tbaa !76
  %15 = call nsz double @prewarp(double noundef %12, double noundef %13, double noundef %14)
  ret double %15
}

; Function Attrs: nounwind uwtable
define internal double @mzh(i32 noundef %0, double noundef %1, double noundef %2, double noundef %3, double noundef %4) #1 {
  %6 = alloca i32, align 4
  %7 = alloca double, align 8
  %8 = alloca double, align 8
  %9 = alloca double, align 8
  %10 = alloca double, align 8
  store i32 %0, ptr %6, align 4, !tbaa !25
  store double %1, ptr %7, align 8, !tbaa !76
  store double %2, ptr %8, align 8, !tbaa !76
  store double %3, ptr %9, align 8, !tbaa !76
  store double %4, ptr %10, align 8, !tbaa !76
  %11 = load i32, ptr %6, align 4, !tbaa !25
  %12 = load double, ptr %8, align 8, !tbaa !76
  %13 = load double, ptr %9, align 8, !tbaa !76
  %14 = load double, ptr %10, align 8, !tbaa !76
  %15 = call nsz double @mz(i32 noundef %11, double noundef %12, double noundef %13, double noundef %14)
  %16 = load double, ptr %7, align 8, !tbaa !76
  %17 = load double, ptr %8, align 8, !tbaa !76
  %18 = call nsz double @prewarp(double noundef %15, double noundef %16, double noundef %17)
  ret double %18
}

; Function Attrs: nounwind uwtable
define internal void @set_filter(ptr noundef %0, i32 noundef %1, double noundef %2, double noundef %3, double noundef %4, double noundef %5) #1 {
  %7 = alloca ptr, align 8
  %8 = alloca i32, align 4
  %9 = alloca double, align 8
  %10 = alloca double, align 8
  %11 = alloca double, align 8
  %12 = alloca double, align 8
  %13 = alloca ptr, align 8
  %14 = alloca double, align 8
  %15 = alloca double, align 8
  %16 = alloca double, align 8
  %17 = alloca double, align 8
  %18 = alloca double, align 8
  %19 = alloca i32, align 4
  %20 = alloca ptr, align 8
  store ptr %0, ptr %7, align 8, !tbaa !4
  store i32 %1, ptr %8, align 4, !tbaa !25
  store double %2, ptr %9, align 8, !tbaa !76
  store double %3, ptr %10, align 8, !tbaa !76
  store double %4, ptr %11, align 8, !tbaa !76
  store double %5, ptr %12, align 8, !tbaa !76
  call void @llvm.lifetime.start.p0(i64 8, ptr %13) #6
  %21 = load ptr, ptr %7, align 8, !tbaa !4
  %22 = getelementptr inbounds nuw %struct.AVFilterContext, ptr %21, i32 0, i32 9
  %23 = load ptr, ptr %22, align 8, !tbaa !9
  store ptr %23, ptr %13, align 8, !tbaa !22
  call void @llvm.lifetime.start.p0(i64 8, ptr %14) #6
  %24 = load double, ptr %10, align 8, !tbaa !76
  %25 = fmul nsz double 0x401921FB54442D18, %24
  store double %25, ptr %14, align 8, !tbaa !76
  call void @llvm.lifetime.start.p0(i64 8, ptr %15) #6
  %26 = load double, ptr %10, align 8, !tbaa !76
  %27 = load double, ptr %11, align 8, !tbaa !76
  %28 = fadd nsz double %26, %27
  store double %28, ptr %15, align 8, !tbaa !76
  call void @llvm.lifetime.start.p0(i64 8, ptr %16) #6
  store double 1.000000e+00, ptr %16, align 8, !tbaa !76
  call void @llvm.lifetime.start.p0(i64 8, ptr %17) #6
  %29 = load double, ptr %15, align 8, !tbaa !76
  %30 = load double, ptr %10, align 8, !tbaa !76
  %31 = fdiv nsz double %29, %30
  %32 = load i32, ptr %8, align 4, !tbaa !25
  %33 = sitofp i32 %32 to double
  %34 = fsub nsz double %33, 1.000000e+00
  %35 = fdiv nsz double 1.000000e+00, %34
  %36 = call nsz double @llvm.pow.f64(double %31, double %35)
  store double %36, ptr %17, align 8, !tbaa !76
  call void @llvm.lifetime.start.p0(i64 8, ptr %18) #6
  %37 = load double, ptr %9, align 8, !tbaa !76
  %38 = fdiv nsz double 1.000000e+00, %37
  store double %38, ptr %18, align 8, !tbaa !76
  call void @llvm.lifetime.start.p0(i64 4, ptr %19) #6
  store i32 0, ptr %19, align 4, !tbaa !25
  br label %39

39:                                               ; preds = %64, %6
  %40 = load i32, ptr %19, align 4, !tbaa !25
  %41 = load i32, ptr %8, align 4, !tbaa !25
  %42 = icmp slt i32 %40, %41
  br i1 %42, label %44, label %43

43:                                               ; preds = %39
  call void @llvm.lifetime.end.p0(i64 4, ptr %19) #6
  br label %67

44:                                               ; preds = %39
  call void @llvm.lifetime.start.p0(i64 8, ptr %20) #6
  %45 = load ptr, ptr %13, align 8, !tbaa !22
  %46 = getelementptr inbounds nuw %struct.ATiltContext, ptr %45, i32 0, i32 6
  %47 = load i32, ptr %19, align 4, !tbaa !25
  %48 = sext i32 %47 to i64
  %49 = getelementptr inbounds [30 x %struct.Coeffs], ptr %46, i64 0, i64 %48
  store ptr %49, ptr %20, align 8, !tbaa !65
  %50 = load ptr, ptr %20, align 8, !tbaa !65
  %51 = load i32, ptr %19, align 4, !tbaa !25
  %52 = load double, ptr %18, align 8, !tbaa !76
  %53 = load double, ptr %14, align 8, !tbaa !76
  %54 = load double, ptr %17, align 8, !tbaa !76
  %55 = load double, ptr %12, align 8, !tbaa !76
  %56 = call nsz double @mzh(i32 noundef %51, double noundef %52, double noundef %53, double noundef %54, double noundef %55)
  %57 = load i32, ptr %19, align 4, !tbaa !25
  %58 = load double, ptr %18, align 8, !tbaa !76
  %59 = load double, ptr %14, align 8, !tbaa !76
  %60 = load double, ptr %17, align 8, !tbaa !76
  %61 = call nsz double @mph(i32 noundef %57, double noundef %58, double noundef %59, double noundef %60)
  %62 = load double, ptr %9, align 8, !tbaa !76
  %63 = load double, ptr %12, align 8, !tbaa !76
  call void @set_tf1s(ptr noundef %50, double noundef 1.000000e+00, double noundef %56, double noundef %61, double noundef 1.000000e+00, double noundef %62, double noundef %63)
  call void @llvm.lifetime.end.p0(i64 8, ptr %20) #6
  br label %64

64:                                               ; preds = %44
  %65 = load i32, ptr %19, align 4, !tbaa !25
  %66 = add nsw i32 %65, 1
  store i32 %66, ptr %19, align 4, !tbaa !25
  br label %39, !llvm.loop !86

67:                                               ; preds = %43
  call void @llvm.lifetime.end.p0(i64 8, ptr %18) #6
  call void @llvm.lifetime.end.p0(i64 8, ptr %17) #6
  call void @llvm.lifetime.end.p0(i64 8, ptr %16) #6
  call void @llvm.lifetime.end.p0(i64 8, ptr %15) #6
  call void @llvm.lifetime.end.p0(i64 8, ptr %14) #6
  call void @llvm.lifetime.end.p0(i64 8, ptr %13) #6
  ret void
}

; Function Attrs: nounwind uwtable
define internal i32 @get_coeffs(ptr noundef %0) #1 {
  %2 = alloca ptr, align 8
  %3 = alloca ptr, align 8
  %4 = alloca ptr, align 8
  store ptr %0, ptr %2, align 8, !tbaa !4
  call void @llvm.lifetime.start.p0(i64 8, ptr %3) #6
  %5 = load ptr, ptr %2, align 8, !tbaa !4
  %6 = getelementptr inbounds nuw %struct.AVFilterContext, ptr %5, i32 0, i32 9
  %7 = load ptr, ptr %6, align 8, !tbaa !9
  store ptr %7, ptr %3, align 8, !tbaa !22
  call void @llvm.lifetime.start.p0(i64 8, ptr %4) #6
  %8 = load ptr, ptr %2, align 8, !tbaa !4
  %9 = getelementptr inbounds nuw %struct.AVFilterContext, ptr %8, i32 0, i32 4
  %10 = load ptr, ptr %9, align 8, !tbaa !81
  %11 = getelementptr inbounds ptr, ptr %10, i64 0
  %12 = load ptr, ptr %11, align 8, !tbaa !26
  store ptr %12, ptr %4, align 8, !tbaa !26
  %13 = load ptr, ptr %2, align 8, !tbaa !4
  %14 = load ptr, ptr %3, align 8, !tbaa !22
  %15 = getelementptr inbounds nuw %struct.ATiltContext, ptr %14, i32 0, i32 5
  %16 = load i32, ptr %15, align 8, !tbaa !64
  %17 = load ptr, ptr %4, align 8, !tbaa !26
  %18 = getelementptr inbounds nuw %struct.AVFilterLink, ptr %17, i32 0, i32 11
  %19 = load i32, ptr %18, align 8, !tbaa !82
  %20 = sitofp i32 %19 to double
  %21 = load ptr, ptr %3, align 8, !tbaa !22
  %22 = getelementptr inbounds nuw %struct.ATiltContext, ptr %21, i32 0, i32 1
  %23 = load double, ptr %22, align 8, !tbaa !83
  %24 = load ptr, ptr %3, align 8, !tbaa !22
  %25 = getelementptr inbounds nuw %struct.ATiltContext, ptr %24, i32 0, i32 4
  %26 = load double, ptr %25, align 8, !tbaa !84
  %27 = load ptr, ptr %3, align 8, !tbaa !22
  %28 = getelementptr inbounds nuw %struct.ATiltContext, ptr %27, i32 0, i32 3
  %29 = load double, ptr %28, align 8, !tbaa !85
  call void @set_filter(ptr noundef %13, i32 noundef %16, double noundef %20, double noundef %23, double noundef %26, double noundef %29)
  call void @llvm.lifetime.end.p0(i64 8, ptr %4) #6
  call void @llvm.lifetime.end.p0(i64 8, ptr %3) #6
  ret i32 0
}

; Function Attrs: nounwind uwtable
define internal i32 @process_command(ptr noundef %0, ptr noundef %1, ptr noundef %2, ptr noundef %3, i32 noundef %4, i32 noundef %5) #1 {
  %7 = alloca i32, align 4
  %8 = alloca ptr, align 8
  %9 = alloca ptr, align 8
  %10 = alloca ptr, align 8
  %11 = alloca ptr, align 8
  %12 = alloca i32, align 4
  %13 = alloca i32, align 4
  %14 = alloca i32, align 4
  %15 = alloca i32, align 4
  store ptr %0, ptr %8, align 8, !tbaa !4
  store ptr %1, ptr %9, align 8, !tbaa !24
  store ptr %2, ptr %10, align 8, !tbaa !24
  store ptr %3, ptr %11, align 8, !tbaa !24
  store i32 %4, ptr %12, align 4, !tbaa !25
  store i32 %5, ptr %13, align 4, !tbaa !25
  call void @llvm.lifetime.start.p0(i64 4, ptr %14) #6
  %16 = load ptr, ptr %8, align 8, !tbaa !4
  %17 = load ptr, ptr %9, align 8, !tbaa !24
  %18 = load ptr, ptr %10, align 8, !tbaa !24
  %19 = load ptr, ptr %11, align 8, !tbaa !24
  %20 = load i32, ptr %12, align 4, !tbaa !25
  %21 = load i32, ptr %13, align 4, !tbaa !25
  %22 = call i32 @ff_filter_process_command(ptr noundef %16, ptr noundef %17, ptr noundef %18, ptr noundef %19, i32 noundef %20, i32 noundef %21)
  store i32 %22, ptr %14, align 4, !tbaa !25
  %23 = load i32, ptr %14, align 4, !tbaa !25
  %24 = icmp slt i32 %23, 0
  br i1 %24, label %25, label %27

25:                                               ; preds = %6
  %26 = load i32, ptr %14, align 4, !tbaa !25
  store i32 %26, ptr %7, align 4
  store i32 1, ptr %15, align 4
  br label %30

27:                                               ; preds = %6
  %28 = load ptr, ptr %8, align 8, !tbaa !4
  %29 = call i32 @get_coeffs(ptr noundef %28)
  store i32 %29, ptr %7, align 4
  store i32 1, ptr %15, align 4
  br label %30

30:                                               ; preds = %27, %25
  call void @llvm.lifetime.end.p0(i64 4, ptr %14) #6
  %31 = load i32, ptr %7, align 4
  ret i32 %31
}