; Function Attrs: nounwind uwtable
define internal range(i32 -2147483648, 1) i32 @process_command(ptr noundef %0, ptr noundef %1, ptr noundef %2, ptr noundef %3, i32 noundef %4, i32 noundef %5) #1 {
  %7 = tail call i32 @ff_filter_process_command(ptr noundef %0, ptr noundef %1, ptr noundef %2, ptr noundef %3, i32 noundef %4, i32 noundef %5) #8
  %8 = icmp slt i32 %7, 0
  br i1 %8, label %get_coeffs.exit, label %9

9:                                                ; preds = %6
  %10 = getelementptr i8, ptr %0, i64 32
  %.val = load ptr, ptr %10, align 8, !tbaa !20
  %11 = getelementptr i8, ptr %0, i64 72
  %.val10 = load ptr, ptr %11, align 8, !tbaa !4
  %.val.val = load ptr, ptr %.val, align 8, !tbaa !21
  %12 = getelementptr i8, ptr %.val.val, i64 64
  %.val.val.val = load i32, ptr %12, align 8, !tbaa !23
  %13 = getelementptr inbounds nuw i8, ptr %.val10, i64 40
  %14 = load i32, ptr %13, align 8, !tbaa !32
  %15 = sitofp i32 %.val.val.val to double
  %16 = getelementptr inbounds nuw i8, ptr %.val10, i64 8
  %17 = load double, ptr %16, align 8, !tbaa !36
  %18 = getelementptr inbounds nuw i8, ptr %.val10, i64 32
  %19 = load double, ptr %18, align 8, !tbaa !37
  %20 = getelementptr inbounds nuw i8, ptr %.val10, i64 24
  %21 = load double, ptr %20, align 8, !tbaa !38
  %22 = fmul nsz double %17, 0x401921FB54442D18
  %23 = fadd nsz double %17, %19
  %24 = fdiv nsz double %23, %17
  %25 = sitofp i32 %14 to double
  %26 = fadd nsz double %25, -1.000000e+00
  %27 = fdiv nsz double 1.000000e+00, %26
  %28 = tail call nsz double @llvm.pow.f64(double %24, double %27)
  %29 = fdiv nsz double 1.000000e+00, %15
  %30 = icmp sgt i32 %14, 0
  br i1 %30, label %.lr.ph.i.i, label %get_coeffs.exit

.lr.ph.i.i:                                       ; preds = %9
  %31 = getelementptr inbounds nuw i8, ptr %.val10, i64 48
  %32 = fmul nsz double %29, %22
  %33 = fmul nsz double %32, 5.000000e-01
  %34 = tail call nsz double @llvm.tan.f64(double %33)
  %35 = fdiv nsz double 5.000000e-01, %15
  %36 = tail call nsz double @llvm.tan.f64(double %35)
  %37 = fdiv nsz double 1.000000e+00, %36
  %wide.trip.count.i.i = zext nneg i32 %14 to i64
  br label %38

38:                                               ; preds = %38, %.lr.ph.i.i
  %indvars.iv.i.i = phi i64 [ 0, %.lr.ph.i.i ], [ %indvars.iv.next.i.i, %38 ]
  %39 = getelementptr inbounds nuw [30 x %struct.Coeffs], ptr %31, i64 0, i64 %indvars.iv.i.i
  %40 = trunc nuw nsw i64 %indvars.iv.i.i to i32
  %41 = uitofp nneg i32 %40 to double
  %42 = fsub nsz double %41, %21
  %43 = tail call nsz double @llvm.pow.f64(double %28, double %42)
  %44 = fmul nsz double %22, %43
  %45 = fmul nsz double %29, %44
  %46 = fmul nsz double %45, 5.000000e-01
  %47 = tail call nsz double @llvm.tan.f64(double %46)
  %48 = fmul nsz double %22, %47
  %49 = fdiv nsz double %48, %34
  %50 = tail call nsz double @llvm.pow.f64(double %28, double %41)
  %51 = fmul nsz double %22, %50
  %52 = fmul nsz double %29, %51
  %53 = fmul nsz double %52, 5.000000e-01
  %54 = tail call nsz double @llvm.tan.f64(double %53)
  %55 = fmul nsz double %22, %54
  %56 = fdiv nsz double %55, %34
  %57 = fadd nsz double %37, %56
  %58 = fsub nsz double %49, %37
  %59 = fdiv nsz double %58, %57
  %60 = getelementptr inbounds nuw i8, ptr %39, i64 24
  store double %59, ptr %60, align 8, !tbaa !39
  %61 = fadd nsz double %37, %49
  %62 = fdiv nsz double %61, %57
  %63 = getelementptr inbounds nuw i8, ptr %39, i64 16
  store double %62, ptr %63, align 8, !tbaa !41
  %64 = fsub nsz double %56, %37
  %65 = fdiv nsz double %64, %57
  %66 = getelementptr inbounds nuw i8, ptr %39, i64 8
  store double %65, ptr %66, align 8, !tbaa !42
  %67 = fdiv nsz double %56, %49
  store double %67, ptr %39, align 8, !tbaa !43
  %indvars.iv.next.i.i = add nuw nsw i64 %indvars.iv.i.i, 1
  %exitcond.not.i.i = icmp eq i64 %indvars.iv.next.i.i, %wide.trip.count.i.i
  br i1 %exitcond.not.i.i, label %get_coeffs.exit, label %38, !llvm.loop !44

get_coeffs.exit:                                  ; preds = %38, %9, %6
  %.0 = phi i32 [ %7, %6 ], [ 0, %9 ], [ 0, %38 ]
  ret i32 %.0
}